target datalayout = "e-m:e-p270:32:32-p271:32:32-p272:64:64-i64:64-i128:128-f80:128-n8:16:32:64-S128"
target triple = "x86_64-pc-linux-gnu"

%struct._zval_struct = type { %union._zend_value, %union.anon, %union.anon.2 }
%union._zend_value = type { i64 }
%union.anon = type { i32 }
%union.anon.2 = type { i32 }
%struct._zend_execute_data = type { ptr, ptr, ptr, ptr, %struct._zval_struct, ptr, ptr, ptr, ptr }

; Function Attrs: nounwind uwtable
define hidden void @zif_cosh(ptr noundef %0, ptr noundef %1) #0 {
  %3 = alloca ptr, align 8
  %4 = alloca ptr, align 8
  %5 = alloca i1, align 1
  %6 = alloca ptr, align 8
  %7 = alloca ptr, align 8
  %8 = alloca ptr, align 8
  %9 = alloca i8, align 1
  %10 = alloca i32, align 4
  %11 = alloca ptr, align 8
  %12 = alloca ptr, align 8
  %13 = alloca double, align 8
  %14 = alloca i32, align 4
  %15 = alloca i32, align 4
  %16 = alloca i32, align 4
  %17 = alloca i32, align 4
  %18 = alloca i32, align 4
  %19 = alloca ptr, align 8
  %20 = alloca ptr, align 8
  %21 = alloca i32, align 4
  %22 = alloca ptr, align 8
  %23 = alloca i8, align 1
  %24 = alloca i8, align 1
  %25 = alloca i32, align 4
  %26 = alloca ptr, align 8
  store ptr %0, ptr %11, align 8
  store ptr %1, ptr %12, align 8
  br label %27

27:                                               ; preds = %2
  store i32 0, ptr %14, align 4
  store i32 1, ptr %15, align 4
  store i32 1, ptr %16, align 4
  %28 = load ptr, ptr %11, align 8
  %29 = getelementptr inbounds %struct._zend_execute_data, ptr %28, i32 0, i32 4
  %30 = getelementptr inbounds %struct._zval_struct, ptr %29, i32 0, i32 2
  %31 = load i32, ptr %30, align 4
  store i32 %31, ptr %17, align 4
  store i32 0, ptr %18, align 4
  store ptr null, ptr %20, align 8
  store i32 0, ptr %21, align 4
  store ptr null, ptr %22, align 8
  store i8 0, ptr %23, align 1
  store i8 0, ptr %24, align 1
  store i32 0, ptr %25, align 4
  br label %32

32:                                               ; preds = %27
  %33 = load i32, ptr %17, align 4
  %34 = load i32, ptr %15, align 4
  %35 = icmp ult i32 %33, %34
  %36 = xor i1 %35, true
  %37 = xor i1 %36, true
  %38 = zext i1 %37 to i32
  %39 = sext i32 %38 to i64
  %40 = icmp ne i64 %39, 0
  br i1 %40, label %50, label %41

41:                                               ; preds = %32
  %42 = load i32, ptr %17, align 4
  %43 = load i32, ptr %16, align 4
  %44 = icmp ugt i32 %42, %43
  %45 = xor i1 %44, true
  %46 = xor i1 %45, true
  %47 = zext i1 %46 to i32
  %48 = sext i32 %47 to i64
  %49 = icmp ne i64 %48, 0
  br i1 %49, label %50, label %53

50:                                               ; preds = %41, %32
  %51 = load i32, ptr %15, align 4
  %52 = load i32, ptr %16, align 4
  call void @zend_wrong_parameters_count_error(i32 noundef %51, i32 noundef %52)
  store i32 1, ptr %25, align 4
  br label %149

53:                                               ; preds = %41
  %54 = load ptr, ptr %11, align 8
  %55 = getelementptr inbounds %struct._zval_struct, ptr %54, i64 4
  store ptr %55, ptr %19, align 8
  %56 = load i32, ptr %18, align 4
  %57 = add i32 %56, 1
  store i32 %57, ptr %18, align 4
  %58 = load i32, ptr %18, align 4
  %59 = load i32, ptr %15, align 4
  %60 = icmp ule i32 %58, %59
  br i1 %60, label %66, label %61

61:                                               ; preds = %53
  %62 = load i8, ptr %24, align 1
  %63 = trunc i8 %62 to i1
  %64 = zext i1 %63 to i32
  %65 = icmp eq i32 %64, 1
  br label %66

66:                                               ; preds = %61, %53
  %67 = phi i1 [ true, %53 ], [ %65, %61 ]
  call void @llvm.assume(i1 %67)
  %68 = load i32, ptr %18, align 4
  %69 = load i32, ptr %15, align 4
  %70 = icmp ugt i32 %68, %69
  br i1 %70, label %76, label %71

71:                                               ; preds = %66
  %72 = load i8, ptr %24, align 1
  %73 = trunc i8 %72 to i1
  %74 = zext i1 %73 to i32
  %75 = icmp eq i32 %74, 0
  br label %76

76:                                               ; preds = %71, %66
  %77 = phi i1 [ true, %66 ], [ %75, %71 ]
  call void @llvm.assume(i1 %77)
  %78 = load i8, ptr %24, align 1
  %79 = trunc i8 %78 to i1
  br i1 %79, label %80, label %91

80:                                               ; preds = %76
  %81 = load i32, ptr %18, align 4
  %82 = load i32, ptr %17, align 4
  %83 = icmp ugt i32 %81, %82
  %84 = xor i1 %83, true
  %85 = xor i1 %84, true
  %86 = zext i1 %85 to i32
  %87 = sext i32 %86 to i64
  %88 = icmp ne i64 %87, 0
  br i1 %88, label %89, label %90

89:                                               ; preds = %80
  br label %149

90:                                               ; preds = %80
  br label %91

91:                                               ; preds = %90, %76
  %92 = load ptr, ptr %19, align 8
  %93 = getelementptr inbounds %struct._zval_struct, ptr %92, i32 1
  store ptr %93, ptr %19, align 8
  %94 = load ptr, ptr %19, align 8
  store ptr %94, ptr %20, align 8
  %95 = load ptr, ptr %20, align 8
  %96 = load i32, ptr %18, align 4
  store ptr %95, ptr %6, align 8
  store ptr %13, ptr %7, align 8
  store ptr %23, ptr %8, align 8
  store i8 0, ptr %9, align 1
  store i32 %96, ptr %10, align 4
  %97 = load i8, ptr %9, align 1
  %98 = trunc i8 %97 to i1
  br i1 %98, label %99, label %101

99:                                               ; preds = %91
  %100 = load ptr, ptr %8, align 8
  store i8 0, ptr %100, align 1
  br label %101

101:                                              ; preds = %99, %91
  %102 = load ptr, ptr %6, align 8
  store ptr %102, ptr %3, align 8
  %103 = load ptr, ptr %3, align 8
  %104 = getelementptr inbounds %struct._zval_struct, ptr %103, i32 0, i32 1
  %105 = load i8, ptr %104, align 8
  %106 = zext i8 %105 to i32
  %107 = icmp eq i32 %106, 5
  br i1 %107, label %108, label %112

108:                                              ; preds = %101
  %109 = load ptr, ptr %6, align 8
  %110 = load double, ptr %109, align 8
  %111 = load ptr, ptr %7, align 8
  store double %110, ptr %111, align 8
  br label %130

112:                                              ; preds = %101
  %113 = load i8, ptr %9, align 1
  %114 = trunc i8 %113 to i1
  br i1 %114, label %115, label %125

115:                                              ; preds = %112
  %116 = load ptr, ptr %6, align 8
  store ptr %116, ptr %4, align 8
  %117 = load ptr, ptr %4, align 8
  %118 = getelementptr inbounds %struct._zval_struct, ptr %117, i32 0, i32 1
  %119 = load i8, ptr %118, align 8
  %120 = zext i8 %119 to i32
  %121 = icmp eq i32 %120, 1
  br i1 %121, label %122, label %125

122:                                              ; preds = %115
  %123 = load ptr, ptr %8, align 8
  store i8 1, ptr %123, align 1
  %124 = load ptr, ptr %7, align 8
  store double 0.000000e+00, ptr %124, align 8
  br label %130

125:                                              ; preds = %115, %112
  %126 = load ptr, ptr %6, align 8
  %127 = load ptr, ptr %7, align 8
  %128 = load i32, ptr %10, align 4
  %129 = call zeroext i1 @zend_parse_arg_double_slow(ptr noundef %126, ptr noundef %127, i32 noundef %128) #12
  store i1 %129, ptr %5, align 1
  br label %131

130:                                              ; preds = %122, %108
  store i1 true, ptr %5, align 1
  br label %131

131:                                              ; preds = %130, %125
  %132 = load i1, ptr %5, align 1
  %133 = xor i1 %132, true
  %134 = xor i1 %133, true
  %135 = xor i1 %134, true
  %136 = zext i1 %135 to i32
  %137 = sext i32 %136 to i64
  %138 = icmp ne i64 %137, 0
  br i1 %138, label %139, label %140

139:                                              ; preds = %131
  store i32 20, ptr %21, align 4
  store i32 9, ptr %25, align 4
  br label %149

140:                                              ; preds = %131
  %141 = load i32, ptr %18, align 4
  %142 = load i32, ptr %16, align 4
  %143 = icmp eq i32 %141, %142
  br i1 %143, label %147, label %144

144:                                              ; preds = %140
  %145 = load i32, ptr %16, align 4
  %146 = icmp eq i32 %145, -1
  br label %147

147:                                              ; preds = %144, %140
  %148 = phi i1 [ true, %140 ], [ %146, %144 ]
  call void @llvm.assume(i1 %148)
  br label %149

149:                                              ; preds = %147, %139, %89, %50
  %150 = load i32, ptr %25, align 4
  %151 = icmp ne i32 %150, 0
  %152 = xor i1 %151, true
  %153 = xor i1 %152, true
  %154 = zext i1 %153 to i32
  %155 = sext i32 %154 to i64
  %156 = icmp ne i64 %155, 0
  br i1 %156, label %157, label %163

157:                                              ; preds = %149
  %158 = load i32, ptr %25, align 4
  %159 = load i32, ptr %18, align 4
  %160 = load ptr, ptr %22, align 8
  %161 = load i32, ptr %21, align 4
  %162 = load ptr, ptr %20, align 8
  call void @zend_wrong_parameter_error(i32 noundef %158, i32 noundef %159, ptr noundef %160, i32 noundef %161, ptr noundef %162)
  br label %175

163:                                              ; preds = %149
  br label %164

164:                                              ; preds = %163
  br label %165

165:                                              ; preds = %164
  br label %166

166:                                              ; preds = %165
  %167 = load ptr, ptr %12, align 8
  store ptr %167, ptr %26, align 8
  %168 = load double, ptr %13, align 8
  %169 = call double @cosh(double noundef %168) #12
  %170 = load ptr, ptr %26, align 8
  %171 = getelementptr inbounds %struct._zval_struct, ptr %170, i32 0, i32 0
  store double %169, ptr %171, align 8
  %172 = load ptr, ptr %26, align 8
  %173 = getelementptr inbounds %struct._zval_struct, ptr %172, i32 0, i32 1
  store i32 5, ptr %173, align 8
  br label %174

174:                                              ; preds = %166
  br label %175

175:                                              ; preds = %174, %157
  ret void
}